
./dumped_files/boot.elf:     file format elf32-littleriscv


Disassembly of section .memory:

00000000 <_start-0x4>:
   0:	0000                	unimp
	...

00000004 <_start>:
   4:	00000093          	li	ra,0
   8:	00000113          	li	sp,0
   c:	00000193          	li	gp,0
  10:	00000213          	li	tp,0
  14:	00000293          	li	t0,0
  18:	00000313          	li	t1,0
  1c:	00000393          	li	t2,0
  20:	00000413          	li	s0,0
  24:	00000493          	li	s1,0
  28:	00000513          	li	a0,0
  2c:	00000593          	li	a1,0
  30:	00000613          	li	a2,0
  34:	00000693          	li	a3,0
  38:	00000713          	li	a4,0
  3c:	00000793          	li	a5,0
  40:	00000813          	li	a6,0
  44:	00000893          	li	a7,0
  48:	00000913          	li	s2,0
  4c:	00000993          	li	s3,0
  50:	00000a13          	li	s4,0
  54:	00000a93          	li	s5,0
  58:	00000b13          	li	s6,0
  5c:	00000b93          	li	s7,0
  60:	00000c13          	li	s8,0
  64:	00000c93          	li	s9,0
  68:	00000d13          	li	s10,0
  6c:	00000d93          	li	s11,0
  70:	00000e13          	li	t3,0
  74:	00000e93          	li	t4,0
  78:	00000f13          	li	t5,0
  7c:	00000f93          	li	t6,0
  80:	00000193          	li	gp,0
  84:	00002137          	lui	sp,0x2
  88:	00010413          	mv	s0,sp
  8c:	00000097          	auipc	ra,0x0
  90:	ff010113          	addi	sp,sp,-16 # 1ff0 <end+0x1dec>
  94:	00112423          	sw	ra,8(sp)
  98:	00000513          	li	a0,0
  9c:	00000593          	li	a1,0
  a0:	00c000ef          	jal	ra,ac <main>
  a4:	f61ff06f          	j	4 <_start>
  a8:	0000006f          	j	a8 <_start+0xa4>

000000ac <main>:
  ac:	fd010113          	addi	sp,sp,-48
  b0:	02812623          	sw	s0,44(sp)
  b4:	03010413          	addi	s0,sp,48
  b8:	200007b7          	lui	a5,0x20000
  bc:	06078793          	addi	a5,a5,96 # 20000060 <end+0x1ffffe5c>
  c0:	fef42423          	sw	a5,-24(s0)
  c4:	01000793          	li	a5,16
  c8:	fef403a3          	sb	a5,-25(s0)
  cc:	200007b7          	lui	a5,0x20000
  d0:	06078793          	addi	a5,a5,96 # 20000060 <end+0x1ffffe5c>
  d4:	6cff7737          	lui	a4,0x6cff7
  d8:	afe70713          	addi	a4,a4,-1282 # 6cff6afe <end+0x6cff68fa>
  dc:	00e7a023          	sw	a4,0(a5)
  e0:	200007b7          	lui	a5,0x20000
  e4:	06478793          	addi	a5,a5,100 # 20000064 <end+0x1ffffe60>
  e8:	d4bba737          	lui	a4,0xd4bba
  ec:	61f70713          	addi	a4,a4,1567 # d4bba61f <end+0xd4bba41b>
  f0:	00e7a023          	sw	a4,0(a5)
  f4:	200007b7          	lui	a5,0x20000
  f8:	06878793          	addi	a5,a5,104 # 20000068 <end+0x1ffffe64>
  fc:	552a2737          	lui	a4,0x552a2
 100:	d5870713          	addi	a4,a4,-680 # 552a1d58 <end+0x552a1b54>
 104:	00e7a023          	sw	a4,0(a5)
 108:	200007b7          	lui	a5,0x20000
 10c:	06c78793          	addi	a5,a5,108 # 2000006c <end+0x1ffffe68>
 110:	fcfae737          	lui	a4,0xfcfae
 114:	14270713          	addi	a4,a4,322 # fcfae142 <end+0xfcfadf3e>
 118:	00e7a023          	sw	a4,0(a5)
 11c:	200027b7          	lui	a5,0x20002
 120:	08078793          	addi	a5,a5,128 # 20002080 <end+0x20001e7c>
 124:	fef42023          	sw	a5,-32(s0)
 128:	fe042783          	lw	a5,-32(s0)
 12c:	0007a023          	sw	zero,0(a5)
 130:	fe0407a3          	sb	zero,-17(s0)
 134:	0ac0006f          	j	1e0 <main+0x134>
 138:	00100793          	li	a5,1
 13c:	fef407a3          	sb	a5,-17(s0)
 140:	00100793          	li	a5,1
 144:	fef40723          	sb	a5,-18(s0)
 148:	08c0006f          	j	1d4 <main+0x128>
 14c:	fee44783          	lbu	a5,-18(s0)
 150:	fff78793          	addi	a5,a5,-1
 154:	fe842703          	lw	a4,-24(s0)
 158:	00f707b3          	add	a5,a4,a5
 15c:	0007c703          	lbu	a4,0(a5)
 160:	fee44783          	lbu	a5,-18(s0)
 164:	fe842683          	lw	a3,-24(s0)
 168:	00f687b3          	add	a5,a3,a5
 16c:	0007c783          	lbu	a5,0(a5)
 170:	04f77c63          	bgeu	a4,a5,1c8 <main+0x11c>
 174:	fee44783          	lbu	a5,-18(s0)
 178:	fff78793          	addi	a5,a5,-1
 17c:	fe842703          	lw	a4,-24(s0)
 180:	00f707b3          	add	a5,a4,a5
 184:	0007c783          	lbu	a5,0(a5)
 188:	fcf40fa3          	sb	a5,-33(s0)
 18c:	fee44783          	lbu	a5,-18(s0)
 190:	fe842703          	lw	a4,-24(s0)
 194:	00f70733          	add	a4,a4,a5
 198:	fee44783          	lbu	a5,-18(s0)
 19c:	fff78793          	addi	a5,a5,-1
 1a0:	fe842683          	lw	a3,-24(s0)
 1a4:	00f687b3          	add	a5,a3,a5
 1a8:	00074703          	lbu	a4,0(a4)
 1ac:	00e78023          	sb	a4,0(a5)
 1b0:	fee44783          	lbu	a5,-18(s0)
 1b4:	fe842703          	lw	a4,-24(s0)
 1b8:	00f707b3          	add	a5,a4,a5
 1bc:	fdf44703          	lbu	a4,-33(s0)
 1c0:	00e78023          	sb	a4,0(a5)
 1c4:	fe0407a3          	sb	zero,-17(s0)
 1c8:	fee44783          	lbu	a5,-18(s0)
 1cc:	00178793          	addi	a5,a5,1
 1d0:	fef40723          	sb	a5,-18(s0)
 1d4:	fee44703          	lbu	a4,-18(s0)
 1d8:	fe744783          	lbu	a5,-25(s0)
 1dc:	f6f768e3          	bltu	a4,a5,14c <main+0xa0>
 1e0:	fef44783          	lbu	a5,-17(s0)
 1e4:	f4078ae3          	beqz	a5,138 <main+0x8c>
 1e8:	fe042783          	lw	a5,-32(s0)
 1ec:	00100713          	li	a4,1
 1f0:	00e7a023          	sw	a4,0(a5)
 1f4:	00000013          	nop
 1f8:	02c12403          	lw	s0,44(sp)
 1fc:	03010113          	addi	sp,sp,48
 200:	00008067          	ret

Disassembly of section .riscv.attributes:

00000000 <.riscv.attributes>:
   0:	2041                	jal	80 <_start+0x7c>
   2:	0000                	unimp
   4:	7200                	flw	fs0,32(a2)
   6:	7369                	lui	t1,0xffffa
   8:	01007663          	bgeu	zero,a6,14 <_start+0x10>
   c:	0016                	c.slli	zero,0x5
   e:	0000                	unimp
  10:	1004                	addi	s1,sp,32
  12:	7205                	lui	tp,0xfffe1
  14:	3376                	fld	ft6,376(sp)
  16:	6932                	flw	fs2,12(sp)
  18:	7032                	flw	ft0,44(sp)
  1a:	5f30                	lw	a2,120(a4)
  1c:	326d                	jal	fffff9c6 <end+0xfffff7c2>
  1e:	3070                	fld	fa2,224(s0)
	...

Disassembly of section .comment:

00000000 <.comment>:
   0:	3a434347          	fmsub.d	ft6,ft6,ft4,ft7,rmm
   4:	2820                	fld	fs0,80(s0)
   6:	29554e47          	fmsub.s	ft8,fa0,fs5,ft5,rmm
   a:	3120                	fld	fs0,96(a0)
   c:	2e31                	jal	328 <end+0x124>
   e:	2e31                	jal	32a <end+0x126>
  10:	0030                	addi	a2,sp,8
