
./dumped_files/exe.elf:     file format elf32-littleriscv


Disassembly of section .memory:

00000000 <_start-0x80>:
   0:	0000                	unimp
   2:	0000                	unimp
   4:	00000093          	li	ra,0
   8:	00000113          	li	sp,0
   c:	00000193          	li	gp,0
  10:	00000213          	li	tp,0
  14:	00000293          	li	t0,0
  18:	00000313          	li	t1,0
  1c:	00000393          	li	t2,0
  20:	00000413          	li	s0,0
  24:	00000493          	li	s1,0
  28:	00000513          	li	a0,0
  2c:	00000593          	li	a1,0
  30:	00000613          	li	a2,0
  34:	00000693          	li	a3,0
  38:	00000713          	li	a4,0
  3c:	00000793          	li	a5,0
  40:	00000813          	li	a6,0
  44:	00000893          	li	a7,0
  48:	00000913          	li	s2,0
  4c:	00000993          	li	s3,0
  50:	00000a13          	li	s4,0
  54:	00000a93          	li	s5,0
  58:	00000b13          	li	s6,0
  5c:	00000b93          	li	s7,0
  60:	00000c13          	li	s8,0
  64:	00000c93          	li	s9,0
  68:	00000d13          	li	s10,0
  6c:	00000d93          	li	s11,0
  70:	00000e13          	li	t3,0
  74:	00000e93          	li	t4,0
  78:	00000f13          	li	t5,0
  7c:	00000f93          	li	t6,0

00000080 <_start>:
  80:	0db00293          	li	t0,219
  84:	00000e93          	li	t4,0
  88:	00000f13          	li	t5,0
  8c:	00000f93          	li	t6,0

00000090 <.counter>:
  90:	00100f93          	li	t6,1
  94:	00100313          	li	t1,1
  98:	00100393          	li	t2,1
  9c:	00100e13          	li	t3,1
  a0:	00128293          	addi	t0,t0,1
  a4:	0012df13          	srli	t5,t0,0x1
  a8:	0012f693          	andi	a3,t0,1
  ac:	00200613          	li	a2,2
  b0:	00100593          	li	a1,1
  b4:	00b68863          	beq	a3,a1,c4 <.divisorsa>
  b8:	00100613          	li	a2,1
  bc:	00200e13          	li	t3,2
  c0:	00230313          	addi	t1,t1,2

000000c4 <.divisorsa>:
  c4:	00200f93          	li	t6,2
  c8:	00028eb3          	add	t4,t0,zero
  cc:	00ce0e33          	add	t3,t3,a2
  d0:	01cf4e63          	blt	t5,t3,ec <.equality>

000000d4 <.divisiona>:
  d4:	00300f93          	li	t6,3
  d8:	ffcec6e3          	blt	t4,t3,c4 <.divisorsa>
  dc:	41ce8eb3          	sub	t4,t4,t3
  e0:	fe0e9ae3          	bnez	t4,d4 <.divisiona>
  e4:	01c30333          	add	t1,t1,t3
  e8:	fddff06f          	j	c4 <.divisorsa>

000000ec <.equality>:
  ec:	00400f93          	li	t6,4
  f0:	fa6280e3          	beq	t0,t1,90 <.counter>
  f4:	00100e13          	li	t3,1
  f8:	00135f13          	srli	t5,t1,0x1
  fc:	00137693          	andi	a3,t1,1
 100:	00200613          	li	a2,2
 104:	00100593          	li	a1,1
 108:	00b68863          	beq	a3,a1,118 <.divisorsb>
 10c:	00100613          	li	a2,1
 110:	00200e13          	li	t3,2
 114:	00238393          	addi	t2,t2,2

00000118 <.divisorsb>:
 118:	00500f93          	li	t6,5
 11c:	00030eb3          	add	t4,t1,zero
 120:	00ce0e33          	add	t3,t3,a2
 124:	01cf4e63          	blt	t5,t3,140 <.check>

00000128 <.divisionb>:
 128:	00600f93          	li	t6,6
 12c:	ffcec6e3          	blt	t4,t3,118 <.divisorsb>
 130:	41ce8eb3          	sub	t4,t4,t3
 134:	fe0e9ae3          	bnez	t4,128 <.divisionb>
 138:	01c383b3          	add	t2,t2,t3
 13c:	fddff06f          	j	118 <.divisorsb>

00000140 <.check>:
 140:	00700f93          	li	t6,7
 144:	f47296e3          	bne	t0,t2,90 <.counter>
 148:	00800f93          	li	t6,8
 14c:	f35ff06f          	j	80 <_start>

Disassembly of section .riscv.attributes:

00000000 <.riscv.attributes>:
   0:	1e41                	addi	t3,t3,-16
   2:	0000                	unimp
   4:	7200                	flw	fs0,32(a2)
   6:	7369                	lui	t1,0xffffa
   8:	01007663          	bgeu	zero,a6,14 <_start-0x6c>
   c:	0014                	0x14
   e:	0000                	unimp
  10:	7205                	lui	tp,0xfffe1
  12:	3376                	fld	ft6,376(sp)
  14:	6932                	flw	fs2,12(sp)
  16:	7032                	flw	ft0,44(sp)
  18:	5f30                	lw	a2,120(a4)
  1a:	326d                	jal	fffff9c4 <end+0xfffff874>
  1c:	3070                	fld	fa2,224(s0)
	...
